target datalayout = "e-m:e-p270:32:32-p271:32:32-p272:64:64-i64:64-i128:128-f80:128-n8:16:32:64-S128"
target triple = "x86_64-pc-linux-gnu"

; Function Attrs: nounwind uwtable
define internal i32 @Mult(i8 noundef zeroext %0, i32 noundef %1) #0 {
  %3 = alloca i8, align 1
  %4 = alloca i32, align 4
  %5 = alloca i32, align 4
  store i8 %0, ptr %3, align 1, !tbaa !12
  store i32 %1, ptr %4, align 4, !tbaa !8
  call void @llvm.lifetime.start.p0(i64 4, ptr %5) #5
  %6 = load i8, ptr %3, align 1, !tbaa !12
  %7 = zext i8 %6 to i32
  %8 = load i32, ptr %4, align 4, !tbaa !8
  %9 = mul i32 %7, %8
  %10 = add i32 %9, 8388608
  %11 = lshr i32 %10, 24
  store i32 %11, ptr %5, align 4, !tbaa !8
  %12 = load i32, ptr %5, align 4, !tbaa !8
  call void @llvm.lifetime.end.p0(i64 4, ptr %5) #5
  ret i32 %12
}

; Function Attrs: inlinehint nounwind uwtable
define internal i32 @GetScale(i32 noundef %0, i32 noundef %1) #2 {
  %3 = alloca i32, align 4
  %4 = alloca i32, align 4
  store i32 %0, ptr %3, align 4, !tbaa !8
  store i32 %1, ptr %4, align 4, !tbaa !8
  %5 = load i32, ptr %4, align 4, !tbaa !8
  %6 = icmp ne i32 %5, 0
  br i1 %6, label %7, label %10

7:                                                ; preds = %2
  %8 = load i32, ptr %3, align 4, !tbaa !8
  %9 = udiv i32 -16777216, %8
  br label %13

10:                                               ; preds = %2
  %11 = load i32, ptr %3, align 4, !tbaa !8
  %12 = mul i32 %11, 65793
  br label %13

13:                                               ; preds = %10, %7
  %14 = phi i32 [ %9, %7 ], [ %12, %10 ]
  ret i32 %14
}

; Function Attrs: nounwind uwtable
define hidden void @WebPMultRow_C(ptr noalias noundef %0, ptr noalias noundef %1, i32 noundef %2, i32 noundef %3) #0 {
  %5 = alloca ptr, align 8
  %6 = alloca ptr, align 8
  %7 = alloca i32, align 4
  %8 = alloca i32, align 4
  %9 = alloca i32, align 4
  %10 = alloca i32, align 4
  %11 = alloca i32, align 4
  store ptr %0, ptr %5, align 8, !tbaa !13
  store ptr %1, ptr %6, align 8, !tbaa !13
  store i32 %2, ptr %7, align 4, !tbaa !8
  store i32 %3, ptr %8, align 4, !tbaa !8
  call void @llvm.lifetime.start.p0(i64 4, ptr %9) #5
  store i32 0, ptr %9, align 4, !tbaa !8
  br label %12

12:                                               ; preds = %51, %4
  %13 = load i32, ptr %9, align 4, !tbaa !8
  %14 = load i32, ptr %7, align 4, !tbaa !8
  %15 = icmp slt i32 %13, %14
  br i1 %15, label %16, label %54

16:                                               ; preds = %12
  call void @llvm.lifetime.start.p0(i64 4, ptr %10) #5
  %17 = load ptr, ptr %6, align 8, !tbaa !13
  %18 = load i32, ptr %9, align 4, !tbaa !8
  %19 = sext i32 %18 to i64
  %20 = getelementptr inbounds i8, ptr %17, i64 %19
  %21 = load i8, ptr %20, align 1, !tbaa !12
  %22 = zext i8 %21 to i32
  store i32 %22, ptr %10, align 4, !tbaa !8
  %23 = load i32, ptr %10, align 4, !tbaa !8
  %24 = icmp ne i32 %23, 255
  br i1 %24, label %25, label %50

25:                                               ; preds = %16
  %26 = load i32, ptr %10, align 4, !tbaa !8
  %27 = icmp eq i32 %26, 0
  br i1 %27, label %28, label %33

28:                                               ; preds = %25
  %29 = load ptr, ptr %5, align 8, !tbaa !13
  %30 = load i32, ptr %9, align 4, !tbaa !8
  %31 = sext i32 %30 to i64
  %32 = getelementptr inbounds i8, ptr %29, i64 %31
  store i8 0, ptr %32, align 1, !tbaa !12
  br label %49

33:                                               ; preds = %25
  call void @llvm.lifetime.start.p0(i64 4, ptr %11) #5
  %34 = load i32, ptr %10, align 4, !tbaa !8
  %35 = load i32, ptr %8, align 4, !tbaa !8
  %36 = call i32 @GetScale(i32 noundef %34, i32 noundef %35)
  store i32 %36, ptr %11, align 4, !tbaa !8
  %37 = load ptr, ptr %5, align 8, !tbaa !13
  %38 = load i32, ptr %9, align 4, !tbaa !8
  %39 = sext i32 %38 to i64
  %40 = getelementptr inbounds i8, ptr %37, i64 %39
  %41 = load i8, ptr %40, align 1, !tbaa !12
  %42 = load i32, ptr %11, align 4, !tbaa !8
  %43 = call i32 @Mult(i8 noundef zeroext %41, i32 noundef %42)
  %44 = trunc i32 %43 to i8
  %45 = load ptr, ptr %5, align 8, !tbaa !13
  %46 = load i32, ptr %9, align 4, !tbaa !8
  %47 = sext i32 %46 to i64
  %48 = getelementptr inbounds i8, ptr %45, i64 %47
  store i8 %44, ptr %48, align 1, !tbaa !12
  call void @llvm.lifetime.end.p0(i64 4, ptr %11) #5
  br label %49

49:                                               ; preds = %33, %28
  br label %50

50:                                               ; preds = %49, %16
  call void @llvm.lifetime.end.p0(i64 4, ptr %10) #5
  br label %51

51:                                               ; preds = %50
  %52 = load i32, ptr %9, align 4, !tbaa !8
  %53 = add nsw i32 %52, 1
  store i32 %53, ptr %9, align 4, !tbaa !8
  br label %12, !llvm.loop !15

54:                                               ; preds = %12
  call void @llvm.lifetime.end.p0(i64 4, ptr %9) #5
  ret void
}