; Function Attrs: nofree norecurse nosync nounwind memory(argmem: readwrite) uwtable
define hidden void @WebPMultRow_C(ptr noalias noundef captures(none) %0, ptr noalias noundef readonly captures(none) %1, i32 noundef %2, i32 noundef %3) #0 {
  %5 = icmp sgt i32 %2, 0
  br i1 %5, label %.lr.ph, label %._crit_edge

.lr.ph:                                           ; preds = %4
  %.not.i = icmp eq i32 %3, 0
  %wide.trip.count22 = zext nneg i32 %2 to i64
  br i1 %.not.i, label %.lr.ph.split.us, label %.lr.ph.split

.lr.ph.split.us:                                  ; preds = %.lr.ph, %19
  %indvars.iv19 = phi i64 [ %indvars.iv.next20, %19 ], [ 0, %.lr.ph ]
  %6 = getelementptr inbounds nuw i8, ptr %1, i64 %indvars.iv19
  %7 = load i8, ptr %6, align 1, !tbaa !9
  switch i8 %7, label %GetScale.exit.us [
    i8 -1, label %19
    i8 0, label %8
  ]

8:                                                ; preds = %.lr.ph.split.us
  %9 = getelementptr inbounds nuw i8, ptr %0, i64 %indvars.iv19
  store i8 0, ptr %9, align 1, !tbaa !9
  br label %19

GetScale.exit.us:                                 ; preds = %.lr.ph.split.us
  %10 = zext i8 %7 to i32
  %11 = mul nuw nsw i32 %10, 65793
  %12 = getelementptr inbounds nuw i8, ptr %0, i64 %indvars.iv19
  %13 = load i8, ptr %12, align 1, !tbaa !9
  %14 = zext i8 %13 to i32
  %15 = mul nuw i32 %11, %14
  %16 = add nuw i32 %15, 8388608
  %17 = lshr i32 %16, 24
  %18 = trunc nuw i32 %17 to i8
  store i8 %18, ptr %12, align 1, !tbaa !9
  br label %19

19:                                               ; preds = %GetScale.exit.us, %8, %.lr.ph.split.us
  %indvars.iv.next20 = add nuw nsw i64 %indvars.iv19, 1
  %exitcond23.not = icmp eq i64 %indvars.iv.next20, %wide.trip.count22
  br i1 %exitcond23.not, label %._crit_edge, label %.lr.ph.split.us, !llvm.loop !10

.lr.ph.split:                                     ; preds = %.lr.ph, %33
  %indvars.iv = phi i64 [ %indvars.iv.next, %33 ], [ 0, %.lr.ph ]
  %20 = getelementptr inbounds nuw i8, ptr %1, i64 %indvars.iv
  %21 = load i8, ptr %20, align 1, !tbaa !9
  switch i8 %21, label %GetScale.exit [
    i8 -1, label %33
    i8 0, label %22
  ]

22:                                               ; preds = %.lr.ph.split
  %23 = getelementptr inbounds nuw i8, ptr %0, i64 %indvars.iv
  store i8 0, ptr %23, align 1, !tbaa !9
  br label %33

GetScale.exit:                                    ; preds = %.lr.ph.split
  %24 = zext i8 %21 to i32
  %25 = udiv i32 -16777216, %24
  %26 = getelementptr inbounds nuw i8, ptr %0, i64 %indvars.iv
  %27 = load i8, ptr %26, align 1, !tbaa !9
  %28 = zext i8 %27 to i32
  %29 = mul i32 %25, %28
  %30 = add i32 %29, 8388608
  %31 = lshr i32 %30, 24
  %32 = trunc nuw i32 %31 to i8
  store i8 %32, ptr %26, align 1, !tbaa !9
  br label %33

33:                                               ; preds = %.lr.ph.split, %22, %GetScale.exit
  %indvars.iv.next = add nuw nsw i64 %indvars.iv, 1
  %exitcond.not = icmp eq i64 %indvars.iv.next, %wide.trip.count22
  br i1 %exitcond.not, label %._crit_edge, label %.lr.ph.split, !llvm.loop !10

._crit_edge:                                      ; preds = %33, %19, %4
  ret void
}